target datalayout = "e-m:e-p270:32:32-p271:32:32-p272:64:64-i64:64-i128:128-f80:128-n8:16:32:64-S128"
target triple = "x86_64-pc-linux-gnu"

%"class.std::vector" = type { %"struct.std::_Vector_base" }
%"struct.std::_Vector_base" = type { %"struct.std::_Vector_base<std::__cxx11::basic_string<char>, std::allocator<std::__cxx11::basic_string<char>>>::_Vector_impl" }
%"struct.std::_Vector_base<std::__cxx11::basic_string<char>, std::allocator<std::__cxx11::basic_string<char>>>::_Vector_impl" = type { %"struct.std::_Vector_base<std::__cxx11::basic_string<char>, std::allocator<std::__cxx11::basic_string<char>>>::_Vector_impl_data" }
%"struct.std::_Vector_base<std::__cxx11::basic_string<char>, std::allocator<std::__cxx11::basic_string<char>>>::_Vector_impl_data" = type { ptr, ptr, ptr }
%"class.std::__cxx11::basic_string" = type { %"struct.std::__cxx11::basic_string<char>::_Alloc_hider", i64, %union.anon }
%"struct.std::__cxx11::basic_string<char>::_Alloc_hider" = type { ptr }
%union.anon = type { i64, [8 x i8] }
%"class.cvc5::internal::options::OptionsHandler" = type { ptr }
%"struct.cvc5::internal::options::HolderBASE" = type <{ %"class.cvc5::internal::ManagedErr", i8, [7 x i8], %"class.cvc5::internal::ManagedIn", i8, i8, i8, i8, i32, i8, [7 x i8], %"class.cvc5::internal::ManagedOut", i8, i8, i8, i8, i8, i8, i8, i8, i8, [7 x i8], i64, i8, [7 x i8], i64, i8, i8, i8, i8, i8, i8, i8, i8, i8, i8, i8, [5 x i8], i64, i8, [7 x i8], i64, i8, [7 x i8], i64, i8, [7 x i8], %"class.std::bitset", i8, [7 x i8], %"class.std::vector", i8, [7 x i8] }>
%"class.cvc5::internal::ManagedErr" = type { %"class.cvc5::internal::ManagedStream" }
%"class.cvc5::internal::ManagedStream" = type { ptr, ptr, %"class.std::shared_ptr", %"class.std::__cxx11::basic_string" }
%"class.std::shared_ptr" = type { %"class.std::__shared_ptr" }
%"class.std::__shared_ptr" = type { ptr, %"class.std::__shared_count" }
%"class.std::__shared_count" = type { ptr }
%"class.cvc5::internal::ManagedIn" = type { %"class.cvc5::internal::ManagedStream.208" }
%"class.cvc5::internal::ManagedStream.208" = type { ptr, ptr, %"class.std::shared_ptr.209", %"class.std::__cxx11::basic_string" }
%"class.std::shared_ptr.209" = type { %"class.std::__shared_ptr.210" }
%"class.std::__shared_ptr.210" = type { ptr, %"class.std::__shared_count" }
%"class.cvc5::internal::ManagedOut" = type { %"class.cvc5::internal::ManagedStream" }
%"class.std::bitset" = type { %"struct.std::_Base_bitset" }
%"struct.std::_Base_bitset" = type { i64 }

@.str.222 = private unnamed_addr constant [12 x i8] c"bitset::set\00", align 1
@.str.223 = private unnamed_addr constant [52 x i8] c"%s: __position (which is %zu) >= _Nb (which is %zu)\00", align 1

; Function Attrs: mustprogress nounwind uwtable
define linkonce_odr hidden noundef i64 @_ZNSt12_Base_bitsetILm1EE11_S_whichbitEm(i64 noundef %0) #4 comdat align 2 {
  %2 = alloca i64, align 8
  store i64 %0, ptr %2, align 8, !tbaa !242
  %3 = load i64, ptr %2, align 8, !tbaa !242
  %4 = urem i64 %3, 64
  ret i64 %4
}

; Function Attrs: mustprogress nounwind uwtable
define linkonce_odr hidden noundef nonnull align 8 dereferenceable(8) ptr @_ZNSt12_Base_bitsetILm1EE10_M_getwordEm(ptr noundef nonnull align 8 dereferenceable(8) %0, i64 noundef %1) #4 comdat align 2 {
  %3 = alloca ptr, align 8
  %4 = alloca i64, align 8
  store ptr %0, ptr %3, align 8, !tbaa !1299
  store i64 %1, ptr %4, align 8, !tbaa !242
  %5 = load ptr, ptr %3, align 8
  %6 = getelementptr inbounds nuw %"struct.std::_Base_bitset", ptr %5, i32 0, i32 0
  ret ptr %6
}

; Function Attrs: mustprogress nounwind uwtable
define linkonce_odr hidden noundef i64 @_ZNSt12_Base_bitsetILm1EE10_S_maskbitEm(i64 noundef %0) #4 comdat align 2 {
  %2 = alloca i64, align 8
  store i64 %0, ptr %2, align 8, !tbaa !242
  %3 = load i64, ptr %2, align 8, !tbaa !242
  %4 = call noundef i64 @_ZNSt12_Base_bitsetILm1EE11_S_whichbitEm(i64 noundef %3) #3
  %5 = shl i64 1, %4
  ret i64 %5
}

; Function Attrs: mustprogress nounwind uwtable
define linkonce_odr hidden noundef nonnull align 8 dereferenceable(8) ptr @_ZNSt6bitsetILm26EE14_Unchecked_setEmi(ptr noundef nonnull align 8 dereferenceable(8) %0, i64 noundef %1, i32 noundef %2) #4 comdat align 2 {
  %4 = alloca ptr, align 8
  %5 = alloca i64, align 8
  %6 = alloca i32, align 4
  store ptr %0, ptr %4, align 8, !tbaa !292
  store i64 %1, ptr %5, align 8, !tbaa !242
  store i32 %2, ptr %6, align 4, !tbaa !252
  %7 = load ptr, ptr %4, align 8
  %8 = load i32, ptr %6, align 4, !tbaa !252
  %9 = icmp ne i32 %8, 0
  br i1 %9, label %10, label %17

10:                                               ; preds = %3
  %11 = load i64, ptr %5, align 8, !tbaa !242
  %12 = call noundef i64 @_ZNSt12_Base_bitsetILm1EE10_S_maskbitEm(i64 noundef %11) #3
  %13 = load i64, ptr %5, align 8, !tbaa !242
  %14 = call noundef nonnull align 8 dereferenceable(8) ptr @_ZNSt12_Base_bitsetILm1EE10_M_getwordEm(ptr noundef nonnull align 8 dereferenceable(8) %7, i64 noundef %13) #3
  %15 = load i64, ptr %14, align 8, !tbaa !242
  %16 = or i64 %15, %12
  store i64 %16, ptr %14, align 8, !tbaa !242
  br label %25

17:                                               ; preds = %3
  %18 = load i64, ptr %5, align 8, !tbaa !242
  %19 = call noundef i64 @_ZNSt12_Base_bitsetILm1EE10_S_maskbitEm(i64 noundef %18) #3
  %20 = xor i64 %19, -1
  %21 = load i64, ptr %5, align 8, !tbaa !242
  %22 = call noundef nonnull align 8 dereferenceable(8) ptr @_ZNSt12_Base_bitsetILm1EE10_M_getwordEm(ptr noundef nonnull align 8 dereferenceable(8) %7, i64 noundef %21) #3
  %23 = load i64, ptr %22, align 8, !tbaa !242
  %24 = and i64 %23, %20
  store i64 %24, ptr %22, align 8, !tbaa !242
  br label %25

25:                                               ; preds = %17, %10
  ret ptr %7
}

; Function Attrs: mustprogress uwtable
define linkonce_odr hidden void @_ZNKSt6bitsetILm26EE8_M_checkEmPKc(ptr noundef nonnull align 8 dereferenceable(8) %0, i64 noundef %1, ptr noundef %2) #5 comdat align 2 {
  %4 = alloca ptr, align 8
  %5 = alloca i64, align 8
  %6 = alloca ptr, align 8
  store ptr %0, ptr %4, align 8, !tbaa !292
  store i64 %1, ptr %5, align 8, !tbaa !242
  store ptr %2, ptr %6, align 8, !tbaa !229
  %7 = load i64, ptr %5, align 8, !tbaa !242
  %8 = icmp uge i64 %7, 26
  br i1 %8, label %9, label %12

9:                                                ; preds = %3
  %10 = load ptr, ptr %6, align 8, !tbaa !229
  %11 = load i64, ptr %5, align 8, !tbaa !242
  call void (ptr, ...) @_ZSt24__throw_out_of_range_fmtPKcz(ptr noundef @.str.223, ptr noundef %10, i64 noundef %11, i64 noundef 26) #27
  unreachable

12:                                               ; preds = %3
  ret void
}

; Function Attrs: mustprogress uwtable
define linkonce_odr hidden noundef nonnull align 8 dereferenceable(8) ptr @_ZNSt6bitsetILm26EE3setEmb(ptr noundef nonnull align 8 dereferenceable(8) %0, i64 noundef %1, i1 noundef zeroext %2) #5 comdat align 2 {
  %4 = alloca ptr, align 8
  %5 = alloca i64, align 8
  %6 = alloca i8, align 1
  store ptr %0, ptr %4, align 8, !tbaa !292
  store i64 %1, ptr %5, align 8, !tbaa !242
  %7 = zext i1 %2 to i8
  store i8 %7, ptr %6, align 1, !tbaa !238
  %8 = load ptr, ptr %4, align 8
  %9 = load i64, ptr %5, align 8, !tbaa !242
  call void @_ZNKSt6bitsetILm26EE8_M_checkEmPKc(ptr noundef nonnull align 8 dereferenceable(8) %8, i64 noundef %9, ptr noundef @.str.222)
  %10 = load i64, ptr %5, align 8, !tbaa !242
  %11 = load i8, ptr %6, align 1, !tbaa !238, !range !240, !noundef !241
  %12 = trunc i8 %11 to i1
  %13 = zext i1 %12 to i32
  %14 = call noundef nonnull align 8 dereferenceable(8) ptr @_ZNSt6bitsetILm26EE14_Unchecked_setEmi(ptr noundef nonnull align 8 dereferenceable(8) %8, i64 noundef %10, i32 noundef %13) #3
  ret ptr %14
}

; Function Attrs: mustprogress uwtable
define hidden void @_ZN4cvc58internal7options14OptionsHandler15enableOutputTagERKNSt7__cxx1112basic_stringIcSt11char_traitsIcESaIcEEENS1_9OutputTagE(ptr noundef nonnull align 8 dereferenceable(8) %0, ptr noundef nonnull align 8 dereferenceable(32) %1, i32 noundef %2) #5 align 2 {
  %4 = alloca ptr, align 8
  %5 = alloca ptr, align 8
  %6 = alloca i32, align 4
  %7 = alloca i64, align 8
  store ptr %0, ptr %4, align 8, !tbaa !3
  store ptr %1, ptr %5, align 8, !tbaa !12
  store i32 %2, ptr %6, align 4, !tbaa !290
  %8 = load ptr, ptr %4, align 8
  call void @llvm.lifetime.start.p0(i64 8, ptr %7) #3
  %9 = load i32, ptr %6, align 4, !tbaa !290
  %10 = sext i32 %9 to i64
  store i64 %10, ptr %7, align 8, !tbaa !242
  %11 = getelementptr inbounds nuw %"class.cvc5::internal::options::OptionsHandler", ptr %8, i32 0, i32 0
  %12 = load ptr, ptr %11, align 8, !tbaa !10
  %13 = call noundef nonnull align 8 dereferenceable(361) ptr @_ZN4cvc58internal7Options10write_baseEv(ptr noundef nonnull align 8 dereferenceable(408) %12)
  %14 = getelementptr inbounds nuw %"struct.cvc5::internal::options::HolderBASE", ptr %13, i32 0, i32 47
  %15 = load i64, ptr %7, align 8, !tbaa !242
  %16 = call noundef nonnull align 8 dereferenceable(8) ptr @_ZNSt6bitsetILm26EE3setEmb(ptr noundef nonnull align 8 dereferenceable(8) %14, i64 noundef %15, i1 noundef zeroext true)
  call void @llvm.lifetime.end.p0(i64 8, ptr %7) #3
  ret void
}