; Function Attrs: mustprogress uwtable
define hidden void @_ZN4cvc58internal7options14OptionsHandler15enableOutputTagERKNSt7__cxx1112basic_stringIcSt11char_traitsIcESaIcEEENS1_9OutputTagE(ptr noundef nonnull readonly align 8 captures(none) dereferenceable(8) %0, ptr noundef nonnull readnone align 8 captures(none) dereferenceable(32) %1, i32 noundef %2) local_unnamed_addr #5 align 2 {
  %4 = sext i32 %2 to i64
  %5 = load ptr, ptr %0, align 8, !tbaa !3
  %6 = tail call noundef nonnull align 8 dereferenceable(361) ptr @_ZN4cvc58internal7Options10write_baseEv(ptr noundef nonnull align 8 dereferenceable(408) %5)
  %7 = icmp ugt i32 %2, 25
  br i1 %7, label %8, label %_ZNSt6bitsetILm26EE3setEmb.exit

8:                                                ; preds = %3
  tail call void (ptr, ...) @_ZSt24__throw_out_of_range_fmtPKcz(ptr noundef nonnull @.str.223, ptr noundef nonnull @.str.222, i64 noundef %4, i64 noundef 26) #31
  unreachable

_ZNSt6bitsetILm26EE3setEmb.exit:                  ; preds = %3
  %9 = getelementptr inbounds nuw i8, ptr %6, i64 320
  %10 = shl nuw nsw i64 1, %4
  %11 = load i64, ptr %9, align 8, !tbaa !226
  %12 = or i64 %11, %10
  store i64 %12, ptr %9, align 8, !tbaa !226
  ret void
}